target datalayout = "e-m:e-p270:32:32-p271:32:32-p272:64:64-i64:64-i128:128-f80:128-n8:16:32:64-S128"
target triple = "x86_64-pc-linux-gnu"

@qemu_loglevel = external global i32, align 4
@.str.171 = private unnamed_addr constant [23 x i8] c"ahci: IRQ#%d level:%d\0A\00", align 1

; Function Attrs: inlinehint nounwind sspstrong uwtable
define internal zeroext i1 @qemu_loglevel_mask(i32 noundef %0) #7 {
  %2 = alloca i32, align 4
  store i32 %0, ptr %2, align 4
  %3 = load i32, ptr @qemu_loglevel, align 4
  %4 = load i32, ptr %2, align 4
  %5 = and i32 %3, %4
  %6 = icmp ne i32 %5, 0
  ret i1 %6
}

; Function Attrs: nounwind sspstrong uwtable
define internal void @ahci_irq_set(ptr noundef %0, i32 noundef %1, i32 noundef %2) #0 {
  %4 = alloca ptr, align 8
  %5 = alloca i32, align 4
  %6 = alloca i32, align 4
  store ptr %0, ptr %4, align 8
  store i32 %1, ptr %5, align 4
  store i32 %2, ptr %6, align 4
  br label %7

7:                                                ; preds = %3
  %8 = call zeroext i1 @qemu_loglevel_mask(i32 noundef 1024)
  %9 = xor i1 %8, true
  %10 = xor i1 %9, true
  %11 = zext i1 %10 to i32
  %12 = sext i32 %11 to i64
  %13 = call i64 @llvm.expect.i64(i64 %12, i64 0)
  %14 = icmp ne i64 %13, 0
  br i1 %14, label %15, label %18

15:                                               ; preds = %7
  %16 = load i32, ptr %5, align 4
  %17 = load i32, ptr %6, align 4
  call void (ptr, ...) @qemu_log(ptr noundef @.str.171, i32 noundef %16, i32 noundef %17)
  br label %18

18:                                               ; preds = %15, %7
  br label %19

19:                                               ; preds = %18
  ret void
}