; Function Attrs: nounwind sspstrong uwtable
define internal void @ahci_irq_set(ptr readnone captures(none) %0, i32 noundef %1, i32 noundef %2) #0 {
  %4 = load i32, ptr @qemu_loglevel, align 4
  %5 = and i32 %4, 1024
  %.not = icmp eq i32 %5, 0
  br i1 %.not, label %7, label %6, !prof !7

6:                                                ; preds = %3
  tail call void (ptr, ...) @qemu_log(ptr noundef nonnull @.str.171, i32 noundef %1, i32 noundef %2) #14
  br label %7

7:                                                ; preds = %3, %6
  ret void
}